; Function Attrs: nounwind uwtable
define ptr @l_Lean_Compiler_LCNF_anyFVarM_go___at_Lean_Compiler_LCNF_anyFVar___spec__2(ptr noundef %0, ptr noundef %1) #0 {
  %3 = tail call ptr @lean_apply_1(ptr noundef %0, ptr noundef %1) #4
  %4 = ptrtoint ptr %3 to i64
  %5 = and i64 %4, 1
  %.not = icmp eq i64 %5, 0
  br i1 %.not, label %6, label %lean_dec.exit

6:                                                ; preds = %2
  %7 = load i32, ptr %3, align 4, !tbaa !8
  %8 = icmp sgt i32 %7, 1
  br i1 %8, label %9, label %11, !prof !13

9:                                                ; preds = %6
  %10 = add nsw i32 %7, -1
  store i32 %10, ptr %3, align 4, !tbaa !8
  br label %lean_dec.exit

11:                                               ; preds = %6
  %.not.i = icmp eq i32 %7, 0
  br i1 %.not.i, label %lean_dec.exit, label %12

12:                                               ; preds = %11
  tail call void @lean_dec_ref_cold(ptr noundef nonnull %3) #4
  br label %lean_dec.exit

lean_dec.exit:                                    ; preds = %12, %11, %9, %2
  %13 = and i64 %4, 510
  %14 = icmp eq i64 %13, 0
  %15 = load ptr, ptr @l_Lean_Compiler_LCNF_anyFVarM_go___rarg___lambda__2___closed__1, align 8
  %.0 = select i1 %14, ptr %15, ptr inttoptr (i64 1 to ptr)
  ret ptr %.0
}